target datalayout = "e-m:e-p270:32:32-p271:32:32-p272:64:64-i64:64-i128:128-f80:128-n8:16:32:64-S128"
target triple = "x86_64-pc-linux-gnu"

%struct.ec_point_st = type { ptr, i32, ptr, ptr, ptr, i32 }

; Function Attrs: nounwind uwtable
define i32 @ossl_ec_GFp_simple_point_init(ptr noundef %0) #0 {
  %2 = alloca i32, align 4
  %3 = alloca ptr, align 8
  store ptr %0, ptr %3, align 8, !tbaa !30
  %4 = call ptr @BN_new()
  %5 = load ptr, ptr %3, align 8, !tbaa !30
  %6 = getelementptr inbounds nuw %struct.ec_point_st, ptr %5, i32 0, i32 2
  store ptr %4, ptr %6, align 8, !tbaa !31
  %7 = call ptr @BN_new()
  %8 = load ptr, ptr %3, align 8, !tbaa !30
  %9 = getelementptr inbounds nuw %struct.ec_point_st, ptr %8, i32 0, i32 3
  store ptr %7, ptr %9, align 8, !tbaa !33
  %10 = call ptr @BN_new()
  %11 = load ptr, ptr %3, align 8, !tbaa !30
  %12 = getelementptr inbounds nuw %struct.ec_point_st, ptr %11, i32 0, i32 4
  store ptr %10, ptr %12, align 8, !tbaa !34
  %13 = load ptr, ptr %3, align 8, !tbaa !30
  %14 = getelementptr inbounds nuw %struct.ec_point_st, ptr %13, i32 0, i32 5
  store i32 0, ptr %14, align 8, !tbaa !35
  %15 = load ptr, ptr %3, align 8, !tbaa !30
  %16 = getelementptr inbounds nuw %struct.ec_point_st, ptr %15, i32 0, i32 2
  %17 = load ptr, ptr %16, align 8, !tbaa !31
  %18 = icmp eq ptr %17, null
  br i1 %18, label %29, label %19

19:                                               ; preds = %1
  %20 = load ptr, ptr %3, align 8, !tbaa !30
  %21 = getelementptr inbounds nuw %struct.ec_point_st, ptr %20, i32 0, i32 3
  %22 = load ptr, ptr %21, align 8, !tbaa !33
  %23 = icmp eq ptr %22, null
  br i1 %23, label %29, label %24

24:                                               ; preds = %19
  %25 = load ptr, ptr %3, align 8, !tbaa !30
  %26 = getelementptr inbounds nuw %struct.ec_point_st, ptr %25, i32 0, i32 4
  %27 = load ptr, ptr %26, align 8, !tbaa !34
  %28 = icmp eq ptr %27, null
  br i1 %28, label %29, label %39

29:                                               ; preds = %24, %19, %1
  %30 = load ptr, ptr %3, align 8, !tbaa !30
  %31 = getelementptr inbounds nuw %struct.ec_point_st, ptr %30, i32 0, i32 2
  %32 = load ptr, ptr %31, align 8, !tbaa !31
  call void @BN_free(ptr noundef %32)
  %33 = load ptr, ptr %3, align 8, !tbaa !30
  %34 = getelementptr inbounds nuw %struct.ec_point_st, ptr %33, i32 0, i32 3
  %35 = load ptr, ptr %34, align 8, !tbaa !33
  call void @BN_free(ptr noundef %35)
  %36 = load ptr, ptr %3, align 8, !tbaa !30
  %37 = getelementptr inbounds nuw %struct.ec_point_st, ptr %36, i32 0, i32 4
  %38 = load ptr, ptr %37, align 8, !tbaa !34
  call void @BN_free(ptr noundef %38)
  store i32 0, ptr %2, align 4
  br label %40

39:                                               ; preds = %24
  store i32 1, ptr %2, align 4
  br label %40

40:                                               ; preds = %39, %29
  %41 = load i32, ptr %2, align 4
  ret i32 %41
}