; Function Attrs: nounwind uwtable
define range(i32 0, 2) i32 @ossl_ec_GFp_simple_point_init(ptr noundef captures(none) initializes((16, 44)) %0) #1 {
  %2 = tail call ptr @BN_new() #4
  %3 = getelementptr inbounds nuw i8, ptr %0, i64 16
  store ptr %2, ptr %3, align 8, !tbaa !24
  %4 = tail call ptr @BN_new() #4
  %5 = getelementptr inbounds nuw i8, ptr %0, i64 24
  store ptr %4, ptr %5, align 8, !tbaa !26
  %6 = tail call ptr @BN_new() #4
  %7 = getelementptr inbounds nuw i8, ptr %0, i64 32
  store ptr %6, ptr %7, align 8, !tbaa !27
  %8 = getelementptr inbounds nuw i8, ptr %0, i64 40
  store i32 0, ptr %8, align 8, !tbaa !28
  %9 = load ptr, ptr %3, align 8, !tbaa !24
  %10 = icmp eq ptr %9, null
  br i1 %10, label %15, label %11

11:                                               ; preds = %1
  %12 = load ptr, ptr %5, align 8, !tbaa !26
  %13 = icmp eq ptr %12, null
  %14 = icmp eq ptr %6, null
  %or.cond = select i1 %13, i1 true, i1 %14
  br i1 %or.cond, label %15, label %18

15:                                               ; preds = %11, %1
  tail call void @BN_free(ptr noundef %9) #4
  %16 = load ptr, ptr %5, align 8, !tbaa !26
  tail call void @BN_free(ptr noundef %16) #4
  %17 = load ptr, ptr %7, align 8, !tbaa !27
  tail call void @BN_free(ptr noundef %17) #4
  br label %18

18:                                               ; preds = %11, %15
  %.0 = phi i32 [ 0, %15 ], [ 1, %11 ]
  ret i32 %.0
}